; Function Attrs: mustprogress nounwind uwtable
define dso_local void @_ZN4onnx9TypeProto11clear_valueEv(ptr noundef nonnull align 8 captures(none) dereferenceable(48) %0) local_unnamed_addr #7 align 2 {
  %2 = getelementptr inbounds nuw i8, ptr %0, i64 40
  %3 = load i32, ptr %2, align 8, !tbaa !50
  %cond = icmp eq i32 %3, 1
  br i1 %cond, label %4, label %19

4:                                                ; preds = %1
  %5 = getelementptr inbounds nuw i8, ptr %0, i64 8
  %6 = load ptr, ptr %5, align 8, !tbaa !4
  %7 = ptrtoint ptr %6 to i64
  %8 = and i64 %7, 1
  %.not.i = icmp eq i64 %8, 0
  br i1 %.not.i, label %_ZNK6google8protobuf11MessageLite8GetArenaEv.exit, label %9, !prof !11

9:                                                ; preds = %4
  %10 = and i64 %7, -2
  %11 = inttoptr i64 %10 to ptr
  %12 = load ptr, ptr %11, align 8, !tbaa !86
  br label %_ZNK6google8protobuf11MessageLite8GetArenaEv.exit

_ZNK6google8protobuf11MessageLite8GetArenaEv.exit: ; preds = %4, %9
  %.0.i.i = phi ptr [ %12, %9 ], [ %6, %4 ]
  %13 = icmp eq ptr %.0.i.i, null
  br i1 %13, label %14, label %19

14:                                               ; preds = %_ZNK6google8protobuf11MessageLite8GetArenaEv.exit
  %15 = getelementptr inbounds nuw i8, ptr %0, i64 32
  %16 = load ptr, ptr %15, align 8, !tbaa !78
  %17 = icmp eq ptr %16, null
  br i1 %17, label %19, label %18

18:                                               ; preds = %14
  tail call void @_ZN4onnx16TypeProto_TensorD2Ev(ptr noundef nonnull align 8 dereferenceable(40) %16) #23
  tail call void @_ZdlPv(ptr noundef nonnull %16) #24
  br label %19

19:                                               ; preds = %1, %_ZNK6google8protobuf11MessageLite8GetArenaEv.exit, %18, %14
  store i32 0, ptr %2, align 8, !tbaa !50
  ret void
}